target datalayout = "e-m:e-p270:32:32-p271:32:32-p272:64:64-i64:64-i128:128-f80:128-n8:16:32:64-S128"
target triple = "x86_64-pc-linux-gnu"

%class.mpff_manager = type <{ i32, i32, %class.svector, i32, i8, [3 x i8], %class.id_gen, [4 x %class.svector], %class.svector, %class.mpff, [8 x i8] }>
%class.id_gen = type { i32, %class.svector }
%class.svector = type { %class.vector }
%class.vector = type { ptr }
%class.mpff = type { i32, i32 }

; Function Attrs: mustprogress nounwind uwtable
define linkonce_odr hidden noundef ptr @_ZNK6vectorIjLb0EjE4dataEv(ptr noundef nonnull align 8 dereferenceable(8) %0) #5 comdat align 2 {
  %2 = alloca ptr, align 8
  store ptr %0, ptr %2, align 8, !tbaa !32
  %3 = load ptr, ptr %2, align 8
  %4 = getelementptr inbounds nuw %class.vector, ptr %3, i32 0, i32 0
  %5 = load ptr, ptr %4, align 8, !tbaa !35
  ret ptr %5
}

; Function Attrs: mustprogress uwtable
define linkonce_odr hidden noundef nonnull align 8 dereferenceable(8) ptr @_ZN6vectorIjLb0EjE9push_backERKj(ptr noundef nonnull align 8 dereferenceable(8) %0, ptr noundef nonnull align 4 dereferenceable(4) %1) #4 comdat align 2 {
  %3 = alloca ptr, align 8
  %4 = alloca ptr, align 8
  store ptr %0, ptr %3, align 8, !tbaa !32
  store ptr %1, ptr %4, align 8, !tbaa !36
  %5 = load ptr, ptr %3, align 8
  %6 = getelementptr inbounds nuw %class.vector, ptr %5, i32 0, i32 0
  %7 = load ptr, ptr %6, align 8, !tbaa !35
  %8 = icmp eq ptr %7, null
  br i1 %8, label %19, label %9

9:                                                ; preds = %2
  %10 = getelementptr inbounds nuw %class.vector, ptr %5, i32 0, i32 0
  %11 = load ptr, ptr %10, align 8, !tbaa !35
  %12 = getelementptr inbounds i32, ptr %11, i64 -1
  %13 = load i32, ptr %12, align 4, !tbaa !8
  %14 = getelementptr inbounds nuw %class.vector, ptr %5, i32 0, i32 0
  %15 = load ptr, ptr %14, align 8, !tbaa !35
  %16 = getelementptr inbounds i32, ptr %15, i64 -2
  %17 = load i32, ptr %16, align 4, !tbaa !8
  %18 = icmp eq i32 %13, %17
  br i1 %18, label %19, label %20

19:                                               ; preds = %9, %2
  call void @_ZN6vectorIjLb0EjE13expand_vectorEv(ptr noundef nonnull align 8 dereferenceable(8) %5)
  br label %20

20:                                               ; preds = %19, %9
  %21 = getelementptr inbounds nuw %class.vector, ptr %5, i32 0, i32 0
  %22 = load ptr, ptr %21, align 8, !tbaa !35
  %23 = getelementptr inbounds nuw %class.vector, ptr %5, i32 0, i32 0
  %24 = load ptr, ptr %23, align 8, !tbaa !35
  %25 = getelementptr inbounds i32, ptr %24, i64 -1
  %26 = load i32, ptr %25, align 4, !tbaa !8
  %27 = zext i32 %26 to i64
  %28 = getelementptr inbounds nuw i32, ptr %22, i64 %27
  %29 = load ptr, ptr %4, align 8, !tbaa !36
  %30 = load i32, ptr %29, align 4, !tbaa !8
  store i32 %30, ptr %28, align 4, !tbaa !8
  %31 = getelementptr inbounds nuw %class.vector, ptr %5, i32 0, i32 0
  %32 = load ptr, ptr %31, align 8, !tbaa !35
  %33 = getelementptr inbounds i32, ptr %32, i64 -1
  %34 = load i32, ptr %33, align 4, !tbaa !8
  %35 = add i32 %34, 1
  store i32 %35, ptr %33, align 4, !tbaa !8
  ret ptr %5
}

; Function Attrs: mustprogress uwtable
define linkonce_odr hidden noundef ptr @_ZNK12mpff_manager3sigERK4mpff(ptr noundef nonnull align 8 dereferenceable(89) %0, ptr noundef nonnull align 4 dereferenceable(8) %1) #4 comdat align 2 {
  %3 = alloca ptr, align 8
  %4 = alloca ptr, align 8
  store ptr %0, ptr %3, align 8, !tbaa !3
  store ptr %1, ptr %4, align 8, !tbaa !29
  %5 = load ptr, ptr %3, align 8
  %6 = getelementptr inbounds nuw %class.mpff_manager, ptr %5, i32 0, i32 2
  %7 = call noundef ptr @_ZNK6vectorIjLb0EjE4dataEv(ptr noundef nonnull align 8 dereferenceable(8) %6)
  %8 = load ptr, ptr %4, align 8, !tbaa !29
  %9 = load i32, ptr %8, align 4
  %10 = lshr i32 %9, 1
  %11 = getelementptr inbounds nuw %class.mpff_manager, ptr %5, i32 0, i32 0
  %12 = load i32, ptr %11, align 8, !tbaa !10
  %13 = mul i32 %10, %12
  %14 = zext i32 %13 to i64
  %15 = getelementptr inbounds nuw i32, ptr %7, i64 %14
  ret ptr %15
}

; Function Attrs: mustprogress uwtable
define linkonce_odr hidden void @_ZN6id_gen7recycleEj(ptr noundef nonnull align 8 dereferenceable(16) %0, i32 noundef %1) #4 comdat align 2 {
  %3 = alloca ptr, align 8
  %4 = alloca i32, align 4
  store ptr %0, ptr %3, align 8, !tbaa !26
  store i32 %1, ptr %4, align 4, !tbaa !8
  %5 = load ptr, ptr %3, align 8
  %6 = call noundef zeroext i1 @_ZN6memory16is_out_of_memoryEv()
  br i1 %6, label %7, label %8

7:                                                ; preds = %2
  br label %11

8:                                                ; preds = %2
  %9 = getelementptr inbounds nuw %class.id_gen, ptr %5, i32 0, i32 1
  %10 = call noundef nonnull align 8 dereferenceable(8) ptr @_ZN6vectorIjLb0EjE9push_backERKj(ptr noundef nonnull align 8 dereferenceable(8) %9, ptr noundef nonnull align 4 dereferenceable(4) %4)
  br label %11

11:                                               ; preds = %8, %7
  ret void
}

; Function Attrs: mustprogress uwtable
define hidden void @_ZN12mpff_manager3delER4mpff(ptr noundef nonnull align 8 dereferenceable(89) %0, ptr noundef nonnull align 4 dereferenceable(8) %1) #4 align 2 {
  %3 = alloca ptr, align 8
  %4 = alloca ptr, align 8
  %5 = alloca i32, align 4
  %6 = alloca ptr, align 8
  %7 = alloca i32, align 4
  store ptr %0, ptr %3, align 8, !tbaa !3
  store ptr %1, ptr %4, align 8, !tbaa !29
  %8 = load ptr, ptr %3, align 8
  call void @llvm.lifetime.start.p0(i64 4, ptr %5) #3
  %9 = load ptr, ptr %4, align 8, !tbaa !29
  %10 = load i32, ptr %9, align 4
  %11 = lshr i32 %10, 1
  store i32 %11, ptr %5, align 4, !tbaa !8
  %12 = load i32, ptr %5, align 4, !tbaa !8
  %13 = icmp ne i32 %12, 0
  br i1 %13, label %14, label %34

14:                                               ; preds = %2
  %15 = getelementptr inbounds nuw %class.mpff_manager, ptr %8, i32 0, i32 6
  %16 = load i32, ptr %5, align 4, !tbaa !8
  call void @_ZN6id_gen7recycleEj(ptr noundef nonnull align 8 dereferenceable(16) %15, i32 noundef %16)
  call void @llvm.lifetime.start.p0(i64 8, ptr %6) #3
  %17 = load ptr, ptr %4, align 8, !tbaa !29
  %18 = call noundef ptr @_ZNK12mpff_manager3sigERK4mpff(ptr noundef nonnull align 8 dereferenceable(89) %8, ptr noundef nonnull align 4 dereferenceable(8) %17)
  store ptr %18, ptr %6, align 8, !tbaa !36
  call void @llvm.lifetime.start.p0(i64 4, ptr %7) #3
  store i32 0, ptr %7, align 4, !tbaa !8
  br label %19

19:                                               ; preds = %30, %14
  %20 = load i32, ptr %7, align 4, !tbaa !8
  %21 = getelementptr inbounds nuw %class.mpff_manager, ptr %8, i32 0, i32 0
  %22 = load i32, ptr %21, align 8, !tbaa !10
  %23 = icmp ult i32 %20, %22
  br i1 %23, label %25, label %24

24:                                               ; preds = %19
  call void @llvm.lifetime.end.p0(i64 4, ptr %7) #3
  br label %33

25:                                               ; preds = %19
  %26 = load ptr, ptr %6, align 8, !tbaa !36
  %27 = load i32, ptr %7, align 4, !tbaa !8
  %28 = zext i32 %27 to i64
  %29 = getelementptr inbounds nuw i32, ptr %26, i64 %28
  store i32 0, ptr %29, align 4, !tbaa !8
  br label %30

30:                                               ; preds = %25
  %31 = load i32, ptr %7, align 4, !tbaa !8
  %32 = add i32 %31, 1
  store i32 %32, ptr %7, align 4, !tbaa !8
  br label %19, !llvm.loop !38

33:                                               ; preds = %24
  call void @llvm.lifetime.end.p0(i64 8, ptr %6) #3
  br label %34

34:                                               ; preds = %33, %2
  call void @llvm.lifetime.end.p0(i64 4, ptr %5) #3
  ret void
}

; Function Attrs: mustprogress uwtable
define hidden void @_ZN12mpff_manager5resetER4mpff(ptr noundef nonnull align 8 dereferenceable(89) %0, ptr noundef nonnull align 4 dereferenceable(8) %1) #4 align 2 {
  %3 = alloca ptr, align 8
  %4 = alloca ptr, align 8
  store ptr %0, ptr %3, align 8, !tbaa !3
  store ptr %1, ptr %4, align 8, !tbaa !29
  %5 = load ptr, ptr %3, align 8
  %6 = load ptr, ptr %4, align 8, !tbaa !29
  call void @_ZN12mpff_manager3delER4mpff(ptr noundef nonnull align 8 dereferenceable(89) %5, ptr noundef nonnull align 4 dereferenceable(8) %6)
  %7 = load ptr, ptr %4, align 8, !tbaa !29
  %8 = load i32, ptr %7, align 4
  %9 = and i32 %8, -2
  %10 = or i32 %9, 0
  store i32 %10, ptr %7, align 4
  %11 = load ptr, ptr %4, align 8, !tbaa !29
  %12 = load i32, ptr %11, align 4
  %13 = and i32 %12, 1
  %14 = or i32 %13, 0
  store i32 %14, ptr %11, align 4
  %15 = load ptr, ptr %4, align 8, !tbaa !29
  %16 = getelementptr inbounds nuw %class.mpff, ptr %15, i32 0, i32 1
  store i32 0, ptr %16, align 4, !tbaa !31
  ret void
}

; Function Attrs: mustprogress uwtable
define hidden void @_ZN12mpff_manager3setER4mpffi(ptr noundef nonnull align 8 dereferenceable(89) %0, ptr noundef nonnull align 4 dereferenceable(8) %1, i32 noundef %2) #4 align 2 {
  %4 = alloca ptr, align 8
  %5 = alloca ptr, align 8
  %6 = alloca i32, align 4
  store ptr %0, ptr %4, align 8, !tbaa !3
  store ptr %1, ptr %5, align 8, !tbaa !29
  store i32 %2, ptr %6, align 4, !tbaa !8
  %7 = load ptr, ptr %4, align 8
  %8 = load i32, ptr %6, align 4, !tbaa !8
  %9 = icmp eq i32 %8, 0
  br i1 %9, label %10, label %12

10:                                               ; preds = %3
  %11 = load ptr, ptr %5, align 8, !tbaa !29
  call void @_ZN12mpff_manager5resetER4mpff(ptr noundef nonnull align 8 dereferenceable(89) %7, ptr noundef nonnull align 4 dereferenceable(8) %11)
  br label %27

12:                                               ; preds = %3
  %13 = load i32, ptr %6, align 4, !tbaa !8
  %14 = icmp slt i32 %13, 0
  br i1 %14, label %15, label %23

15:                                               ; preds = %12
  %16 = load ptr, ptr %5, align 8, !tbaa !29
  %17 = load i32, ptr %6, align 4, !tbaa !8
  %18 = sub nsw i32 0, %17
  call void @_ZN12mpff_manager3setER4mpffj(ptr noundef nonnull align 8 dereferenceable(89) %7, ptr noundef nonnull align 4 dereferenceable(8) %16, i32 noundef %18)
  %19 = load ptr, ptr %5, align 8, !tbaa !29
  %20 = load i32, ptr %19, align 4
  %21 = and i32 %20, -2
  %22 = or i32 %21, 1
  store i32 %22, ptr %19, align 4
  br label %26

23:                                               ; preds = %12
  %24 = load ptr, ptr %5, align 8, !tbaa !29
  %25 = load i32, ptr %6, align 4, !tbaa !8
  call void @_ZN12mpff_manager3setER4mpffj(ptr noundef nonnull align 8 dereferenceable(89) %7, ptr noundef nonnull align 4 dereferenceable(8) %24, i32 noundef %25)
  br label %26

26:                                               ; preds = %23, %15
  br label %27

27:                                               ; preds = %26, %10
  ret void
}